target datalayout = "e-m:e-p270:32:32-p271:32:32-p272:64:64-i64:64-i128:128-f80:128-n8:16:32:64-S128"
target triple = "x86_64-pc-linux-gnu"

%"struct.nanobind::dlpack::dtype" = type { i8, i8, i16 }
%"class.nanobind::handle" = type { ptr }
%"class.nanobind::ndarray" = type { ptr, %"struct.nanobind::dlpack::dltensor" }
%"struct.nanobind::dlpack::dltensor" = type { ptr, %"struct.nanobind::dlpack::device", i32, %"struct.nanobind::dlpack::dtype", ptr, ptr, i64 }
%"struct.nanobind::dlpack::device" = type { i32, i32 }
%"class.std::initializer_list" = type { ptr, i64 }
%"class.std::initializer_list.441" = type { ptr, i64 }
%struct.Cls = type { [10 x float] }

@_ZN8nanobind6detail12dtype_traitsIfiE5valueE = linkonce_odr hidden constant %"struct.nanobind::dlpack::dtype" { i8 2, i8 32, i16 1 }, comdat, align 2

; Function Attrs: mustprogress nounwind optsize uwtable
define linkonce_odr hidden i32 @_ZN8nanobind5dtypeIfEENS_6dlpack5dtypeEv() #8 comdat {
  %1 = alloca %"struct.nanobind::dlpack::dtype", align 2
  call void @llvm.memcpy.p0.p0.i64(ptr align 2 %1, ptr align 2 @_ZN8nanobind6detail12dtype_traitsIfiE5valueE, i64 4, i1 false), !tbaa.struct !170
  %2 = load i32, ptr %1, align 2
  ret i32 %2
}

; Function Attrs: mustprogress nounwind optsize uwtable
define linkonce_odr void @_ZNSt16initializer_listIlEC2Ev(ptr noundef nonnull align 8 dereferenceable(16) %0) unnamed_addr #8 comdat align 2 {
  %2 = alloca ptr, align 8
  store ptr %0, ptr %2, align 8, !tbaa !614
  %3 = load ptr, ptr %2, align 8
  %4 = getelementptr inbounds nuw %"class.std::initializer_list.441", ptr %3, i32 0, i32 0
  store ptr null, ptr %4, align 8, !tbaa !616
  %5 = getelementptr inbounds nuw %"class.std::initializer_list.441", ptr %3, i32 0, i32 1
  store i64 0, ptr %5, align 8, !tbaa !618
  ret void
}

; Function Attrs: mustprogress optsize uwtable
define internal void @_ZZL30nanobind_init_test_ndarray_extRN8nanobind7module_EEN3Cls2f3ENS_6handleE(ptr dead_on_unwind noalias writable sret(%"class.nanobind::ndarray") align 8 %0, ptr noundef nonnull align 4 dereferenceable(40) %1, ptr %2) #0 align 2 {
  %4 = alloca ptr, align 8
  %5 = alloca %"class.nanobind::handle", align 8
  %6 = alloca ptr, align 8
  %7 = alloca %"class.std::initializer_list", align 8
  %8 = alloca [1 x i64], align 8
  %9 = alloca %"class.nanobind::handle", align 8
  %10 = alloca %"class.std::initializer_list.441", align 8
  %11 = alloca %"struct.nanobind::dlpack::dtype", align 2
  store ptr %0, ptr %4, align 8
  %12 = getelementptr inbounds nuw %"class.nanobind::handle", ptr %5, i32 0, i32 0
  store ptr %2, ptr %12, align 8
  store ptr %1, ptr %6, align 8, !tbaa !60
  %13 = load ptr, ptr %6, align 8
  %14 = getelementptr inbounds nuw %struct.Cls, ptr %13, i32 0, i32 0
  %15 = getelementptr inbounds [10 x float], ptr %14, i64 0, i64 0
  call void @llvm.lifetime.start.p0(i64 8, ptr %8) #22
  store i64 10, ptr %8, align 8, !tbaa !32
  %16 = getelementptr inbounds nuw %"class.std::initializer_list", ptr %7, i32 0, i32 0
  store ptr %8, ptr %16, align 8, !tbaa !62
  %17 = getelementptr inbounds nuw %"class.std::initializer_list", ptr %7, i32 0, i32 1
  store i64 1, ptr %17, align 8, !tbaa !65
  call void @llvm.memcpy.p0.p0.i64(ptr align 8 %9, ptr align 8 %5, i64 8, i1 false)
  call void @_ZNSt16initializer_listIlEC2Ev(ptr noundef nonnull align 8 dereferenceable(16) %10) #23
  %18 = call i32 @_ZN8nanobind5dtypeIfEENS_6dlpack5dtypeEv() #21
  store i32 %18, ptr %11, align 2
  %19 = getelementptr inbounds nuw { ptr, i64 }, ptr %7, i32 0, i32 0
  %20 = load ptr, ptr %19, align 8
  %21 = getelementptr inbounds nuw { ptr, i64 }, ptr %7, i32 0, i32 1
  %22 = load i64, ptr %21, align 8
  %23 = getelementptr inbounds nuw %"class.nanobind::handle", ptr %9, i32 0, i32 0
  %24 = load ptr, ptr %23, align 8
  %25 = load i32, ptr %11, align 2
  call void @_ZN8nanobind7ndarrayIJNS_5numpyEfEEC2EPvSt16initializer_listImENS_6handleES4_IlENS_6dlpack5dtypeEiic(ptr noundef nonnull align 8 dereferenceable(56) %0, ptr noundef %15, ptr %20, i64 %22, ptr %24, ptr noundef byval(%"class.std::initializer_list.441") align 8 %10, i32 %25, i32 noundef 0, i32 noundef 0, i8 noundef signext 0) #21
  call void @llvm.lifetime.end.p0(i64 8, ptr %8) #22
  ret void
}