; Function Attrs: mustprogress optsize uwtable
define internal void @_ZZL30nanobind_init_test_ndarray_extRN8nanobind7module_EEN3Cls2f3ENS_6handleE(ptr dead_on_unwind noalias nonnull writable sret(%"class.nanobind::ndarray") align 8 %0, ptr noundef nonnull align 4 dereferenceable(40) %1, ptr %2) #0 align 2 {
  %4 = alloca [1 x i64], align 8
  %5 = alloca %"class.std::initializer_list.441", align 8
  call void @llvm.lifetime.start.p0(i64 8, ptr nonnull %4) #22
  store i64 10, ptr %4, align 8, !tbaa !67
  call void @llvm.memset.p0.i64(ptr noundef nonnull align 8 dereferenceable(16) %5, i8 0, i64 16, i1 false)
  call void @_ZN8nanobind7ndarrayIJNS_5numpyEfEEC2EPvSt16initializer_listImENS_6handleES4_IlENS_6dlpack5dtypeEiic(ptr noundef nonnull align 8 dereferenceable(56) %0, ptr noundef nonnull %1, ptr nonnull %4, i64 1, ptr %2, ptr noundef nonnull byval(%"class.std::initializer_list.441") align 8 %5, i32 73730, i32 noundef 0, i32 noundef 0, i8 noundef signext 0) #21
  call void @llvm.lifetime.end.p0(i64 8, ptr nonnull %4) #22
  ret void
}